target datalayout = "e-m:e-p270:32:32-p271:32:32-p272:64:64-i64:64-i128:128-f80:128-n8:16:32:64-S128"
target triple = "x86_64-pc-linux-gnu"

%struct.FWCfgState = type { %struct.SysBusDevice, i16, [2 x ptr], ptr, ptr, i16, i32, %struct.Notifier, i32, i8, i64, ptr, %struct.MemoryRegion, i8, i64, i64, i64 }
%struct.SysBusDevice = type { %struct.DeviceState, i32, [32 x %struct.anon], i32, [32 x i32] }
%struct.DeviceState = type { %struct.Object, ptr, ptr, i8, i8, i64, i32, i8, ptr, %struct.NamedGPIOListHead, %struct.NamedClockListHead, %struct.BusStateHead, i32, i32, i32, %struct.ResettableState, ptr, %struct.MemReentrancyGuard }
%struct.Object = type { ptr, ptr, ptr, i32, ptr }
%struct.NamedGPIOListHead = type { ptr }
%struct.NamedClockListHead = type { ptr }
%struct.BusStateHead = type { ptr }
%struct.ResettableState = type { i32, i8, i8 }
%struct.MemReentrancyGuard = type { i8 }
%struct.anon = type { i64, ptr }
%struct.Notifier = type { ptr, %struct.anon.0 }
%struct.anon.0 = type { ptr, ptr }
%struct.MemoryRegion = type { %struct.Object, i8, i8, i8, i8, i8, i8, i8, i8, i8, i8, ptr, ptr, ptr, ptr, ptr, ptr, i32, i128, i64, ptr, i64, i8, i8, i8, i8, ptr, i64, i32, %union.anon, %union.anon.1, %union.anon.2, ptr, i32, ptr, ptr, i8 }
%union.anon = type { %struct.QTailQLink }
%struct.QTailQLink = type { ptr, ptr }
%union.anon.1 = type { %struct.QTailQLink }
%union.anon.2 = type { %struct.QTailQLink }

@.str = private unnamed_addr constant [30 x i8] c"s->fw_cfg_order_override == 0\00", align 1
@.str.1 = private unnamed_addr constant [26 x i8] c"../qemu/hw/nvram/fw_cfg.c\00", align 1
@__PRETTY_FUNCTION__.fw_cfg_set_order_override = private unnamed_addr constant [50 x i8] c"void fw_cfg_set_order_override(FWCfgState *, int)\00", align 1

; Function Attrs: nounwind sspstrong uwtable
define dso_local void @fw_cfg_set_order_override(ptr noundef %0, i32 noundef %1) #0 {
  %3 = alloca ptr, align 8
  %4 = alloca i32, align 4
  store ptr %0, ptr %3, align 8
  store i32 %1, ptr %4, align 4
  %5 = load ptr, ptr %3, align 8
  %6 = getelementptr inbounds nuw %struct.FWCfgState, ptr %5, i32 0, i32 8
  %7 = load i32, ptr %6, align 16
  %8 = icmp eq i32 %7, 0
  br i1 %8, label %9, label %10

9:                                                ; preds = %2
  br label %11

10:                                               ; preds = %2
  call void @__assert_fail(ptr noundef @.str, ptr noundef @.str.1, i32 noundef 822, ptr noundef @__PRETTY_FUNCTION__.fw_cfg_set_order_override) #19
  unreachable

11:                                               ; preds = %9
  %12 = load i32, ptr %4, align 4
  %13 = load ptr, ptr %3, align 8
  %14 = getelementptr inbounds nuw %struct.FWCfgState, ptr %13, i32 0, i32 8
  store i32 %12, ptr %14, align 16
  ret void
}