; Function Attrs: nounwind sspstrong uwtable
define dso_local void @fw_cfg_set_order_override(ptr noundef captures(none) %0, i32 noundef %1) local_unnamed_addr #2 {
  %3 = getelementptr inbounds nuw i8, ptr %0, i64 880
  %4 = load i32, ptr %3, align 16
  %5 = icmp eq i32 %4, 0
  br i1 %5, label %7, label %6

6:                                                ; preds = %2
  tail call void @__assert_fail(ptr noundef nonnull @.str, ptr noundef nonnull @.str.1, i32 noundef 822, ptr noundef nonnull @__PRETTY_FUNCTION__.fw_cfg_set_order_override) #19
  unreachable

7:                                                ; preds = %2
  store i32 %1, ptr %3, align 16
  ret void
}